Certificate:
    Data:
        Version: 3 (0x2)
        Serial Number: 4096 (0x1000)
        Signature Algorithm: sha256WithRSAEncryption
        Issuer: C=PT, ST=Some-State, O=FEUP, CN=Diogo Nunes
        Validity
            Not Before: Jan 21 12:05:09 2022 GMT
            Not After : Jan 19 12:05:09 2032 GMT
        Subject: C=PT, O=FEUP, CN=Diogo Nunes
        Subject Public Key Info:
            Public Key Algorithm: rsaEncryption
                RSA Public-Key: (2048 bit)
                Modulus:
                    00:b9:32:42:57:d8:f4:7a:7e:20:b7:65:81:38:2f:
                    ea:7c:76:99:8f:de:4e:4d:46:0a:82:8d:fb:42:40:
                    61:8b:e9:3d:fe:13:09:75:1b:78:06:fd:cc:30:ec:
                    75:50:70:e7:ee:60:dd:ee:0a:f1:f7:23:3f:61:80:
                    18:92:fc:46:80:82:5d:46:38:4d:9c:5a:6d:05:6b:
                    0c:b5:92:89:63:90:4a:e6:f6:fc:3d:4b:b4:0a:4f:
                    5e:cb:93:e7:bc:63:7a:d3:0c:99:c2:31:d5:ba:99:
                    04:3b:db:da:e0:32:d7:ad:cd:75:7f:58:cf:ef:d1:
                    fc:99:09:8e:fa:69:bf:9f:ea:0a:97:e2:63:a5:53:
                    d6:21:5b:6f:83:ea:70:ee:e4:ff:5b:b3:cd:ac:51:
                    ea:27:58:43:f8:bd:be:71:37:bc:be:79:00:e1:0f:
                    40:fc:85:e7:71:67:28:18:9f:cb:c3:d0:73:84:4c:
                    55:03:9f:02:25:ca:95:39:43:0d:58:85:3a:80:8f:
                    7d:d4:10:bf:d8:33:d2:59:7d:9e:aa:c6:85:31:70:
                    fa:fc:03:f5:3c:2e:9c:70:cd:7d:65:06:6f:29:89:
                    ca:34:9c:b4:ca:fa:e2:c1:06:38:b1:d4:98:7a:be:
                    8f:ff:36:e3:95:ae:3b:1c:84:c1:cd:1f:81:97:1d:
                    a2:cb
                Exponent: 65537 (0x10001)
        X509v3 extensions:
            X509v3 Basic Constraints: 
                CA:FALSE
            Netscape Comment: 
                OpenSSL Generated Certificate
            X509v3 Subject Key Identifier: 
                14:EF:05:75:B9:3A:CE:98:21:80:66:96:17:00:CE:C0:9C:52:00:DC
            X509v3 Authority Key Identifier: 
                keyid:44:B3:FA:32:68:71:DF:AA:95:52:82:33:E9:C9:80:EB:88:A0:77:6E

    Signature Algorithm: sha256WithRSAEncryption
         07:d4:aa:a1:cd:07:2f:96:a2:6f:00:84:cf:42:e2:07:4c:fc:
         35:2d:02:ab:b2:52:db:04:7c:23:64:2a:6a:ca:59:22:f8:4f:
         a7:03:2a:17:86:2d:8e:5e:52:9d:fc:47:bb:97:8f:02:e2:e1:
         1c:c2:b8:fe:a6:3f:a1:4d:a8:1e:73:de:d6:1e:09:bb:2a:a7:
         b5:6a:49:60:6b:74:2d:83:2a:c0:d4:44:36:c5:b3:49:ad:89:
         a8:88:61:75:5c:91:23:4f:83:8c:8c:42:e2:60:d3:d3:60:14:
         ce:c6:5c:14:50:78:ef:f8:a9:cd:b1:91:3b:f7:dd:3a:39:8a:
         83:7f:eb:b0:59:d5:01:10:02:bc:f7:a5:00:35:50:f0:5c:ce:
         7f:8a:89:88:19:3c:41:d6:1d:b9:0f:c7:17:31:7c:08:ee:4a:
         49:27:02:71:24:47:70:4e:f4:a7:1b:d7:15:83:d1:fa:b5:6d:
         2a:d9:21:cb:2f:5e:4a:66:37:7c:99:e9:26:ad:f3:c1:a5:12:
         28:cd:5d:8d:ee:7f:c1:e1:bf:47:a6:b9:16:a3:63:7c:04:e6:
         88:a3:99:73:d2:12:fb:a7:c9:96:13:0d:30:c9:e2:43:c3:a6:
         35:cf:08:f6:cc:03:71:53:6a:c8:29:52:a2:71:d4:65:82:ae:
         f0:4f:3a:ac:9c:ad:68:77:9b:1b:40:5b:85:dd:ad:31:17:60:
         26:8b:ec:70:fc:f0:4c:40:2a:30:66:4b:b4:13:88:33:e4:c2:
         c7:2e:a5:e5:be:03:7d:78:48:33:00:40:4b:27:df:45:6a:88:
         a5:89:af:2b:15:2e:6c:09:70:3a:f5:2d:c8:3f:d6:c4:38:86:
         da:8b:5d:39:18:d3:7d:6a:2f:3c:09:fb:ae:48:eb:87:92:ca:
         b7:3c:87:f4:1c:21:29:58:46:e7:33:6b:79:f7:e4:39:04:f2:
         e9:97:d6:6d:6d:b1:08:72:13:28:bf:de:50:37:5b:55:81:2d:
         1c:e2:e4:dd:59:71:19:03:35:91:9f:87:57:2d:17:7c:3b:dc:
         b7:47:84:15:bc:74:8a:96:37:3f:38:4c:0f:0d:9d:6e:ba:ed:
         7c:6a:90:3b:2e:fe:ef:e5:27:1e:6d:90:fa:ad:36:ec:15:df:
         40:ae:ab:4e:da:5a:29:eb:85:57:66:64:8e:5c:c8:0e:53:d6:
         e6:ec:81:84:a3:9c:a9:56:21:e0:fb:c7:ea:a9:17:d4:9c:03:
         9a:19:a7:5d:51:67:4e:b7:73:96:9a:35:ba:8e:c1:c0:78:ec:
         55:5a:f1:11:51:70:91:c9:57:d2:4c:a1:0c:b5:44:6e:9d:c7:
         06:4e:18:0f:90:dc:ab:3c
-----BEGIN CERTIFICATE-----
MIIEcDCCAligAwIBAgICEAAwDQYJKoZIhvcNAQELBQAwRzELMAkGA1UEBhMCUFQx
EzARBgNVBAgMClNvbWUtU3RhdGUxDTALBgNVBAoMBEZFVVAxFDASBgNVBAMMC0Rp
b2dvIE51bmVzMB4XDTIyMDEyMTEyMDUwOVoXDTMyMDExOTEyMDUwOVowMjELMAkG
A1UEBhMCUFQxDTALBgNVBAoMBEZFVVAxFDASBgNVBAMMC0Rpb2dvIE51bmVzMIIB
IjANBgkqhkiG9w0BAQEFAAOCAQ8AMIIBCgKCAQEAuTJCV9j0en4gt2WBOC/qfHaZ
j95OTUYKgo37QkBhi+k9/hMJdRt4Bv3MMOx1UHDn7mDd7grx9yM/YYAYkvxGgIJd
RjhNnFptBWsMtZKJY5BK5vb8PUu0Ck9ey5PnvGN60wyZwjHVupkEO9va4DLXrc11
f1jP79H8mQmO+mm/n+oKl+JjpVPWIVtvg+pw7uT/W7PNrFHqJ1hD+L2+cTe8vnkA
4Q9A/IXncWcoGJ/Lw9BzhExVA58CJcqVOUMNWIU6gI991BC/2DPSWX2eqsaFMXD6
/AP1PC6ccM19ZQZvKYnKNJy0yvriwQY4sdSYer6P/zbjla47HITBzR+Blx2iywID
AQABo3sweTAJBgNVHRMEAjAAMCwGCWCGSAGG+EIBDQQfFh1PcGVuU1NMIEdlbmVy
YXRlZCBDZXJ0aWZpY2F0ZTAdBgNVHQ4EFgQUFO8Fdbk6zpghgGaWFwDOwJxSANww
HwYDVR0jBBgwFoAURLP6Mmhx36qVUoIz6cmA64igd24wDQYJKoZIhvcNAQELBQAD
ggIBAAfUqqHNBy+Wom8AhM9C4gdM/DUtAquyUtsEfCNkKmrKWSL4T6cDKheGLY5e
Up38R7uXjwLi4RzCuP6mP6FNqB5z3tYeCbsqp7VqSWBrdC2DKsDURDbFs0mtiaiI
YXVckSNPg4yMQuJg09NgFM7GXBRQeO/4qc2xkTv33To5ioN/67BZ1QEQArz3pQA1
UPBczn+KiYgZPEHWHbkPxxcxfAjuSkknAnEkR3BO9Kcb1xWD0fq1bSrZIcsvXkpm
N3yZ6Sat88GlEijNXY3uf8Hhv0emuRajY3wE5oijmXPSEvunyZYTDTDJ4kPDpjXP
CPbMA3FTasgpUqJx1GWCrvBPOqycrWh3mxtAW4XdrTEXYCaL7HD88ExAKjBmS7QT
iDPkwscupeW+A314SDMAQEsn30VqiKWJrysVLmwJcDr1Lcg/1sQ4htqLXTkY031q
LzwJ+65I64eSyrc8h/QcISlYRucza3n35DkE8umX1m1tsQhyEyi/3lA3W1WBLRzi
5N1ZcRkDNZGfh1ctF3w73LdHhBW8dIqWNz84TA8NnW667XxqkDsu/u/lJx5tkPqt
NuwV30Cuq07aWinrhVdmZI5cyA5T1ubsgYSjnKlWIeD7x+qpF9ScA5oZp11RZ063
c5aaNbqOwcB47FVa8RFRcJHJV9JMoQy1RG6dxwZOGA+Q3Ks8
-----END CERTIFICATE-----
