Certificate:
    Data:
        Version: 3 (0x2)
        Serial Number: 4098 (0x1002)
        Signature Algorithm: sha256WithRSAEncryption
        Issuer: C=PT, ST=Some-State, O=FEUP, CN=Diogo Nunes
        Validity
            Not Before: Jan 21 13:18:15 2022 GMT
            Not After : Jan 19 13:18:15 2032 GMT
        Subject: C=PT, O=FEUP, CN=Diogo Nunes
        Subject Public Key Info:
            Public Key Algorithm: rsaEncryption
                RSA Public-Key: (2048 bit)
                Modulus:
                    00:b9:32:42:57:d8:f4:7a:7e:20:b7:65:81:38:2f:
                    ea:7c:76:99:8f:de:4e:4d:46:0a:82:8d:fb:42:40:
                    61:8b:e9:3d:fe:13:09:75:1b:78:06:fd:cc:30:ec:
                    75:50:70:e7:ee:60:dd:ee:0a:f1:f7:23:3f:61:80:
                    18:92:fc:46:80:82:5d:46:38:4d:9c:5a:6d:05:6b:
                    0c:b5:92:89:63:90:4a:e6:f6:fc:3d:4b:b4:0a:4f:
                    5e:cb:93:e7:bc:63:7a:d3:0c:99:c2:31:d5:ba:99:
                    04:3b:db:da:e0:32:d7:ad:cd:75:7f:58:cf:ef:d1:
                    fc:99:09:8e:fa:69:bf:9f:ea:0a:97:e2:63:a5:53:
                    d6:21:5b:6f:83:ea:70:ee:e4:ff:5b:b3:cd:ac:51:
                    ea:27:58:43:f8:bd:be:71:37:bc:be:79:00:e1:0f:
                    40:fc:85:e7:71:67:28:18:9f:cb:c3:d0:73:84:4c:
                    55:03:9f:02:25:ca:95:39:43:0d:58:85:3a:80:8f:
                    7d:d4:10:bf:d8:33:d2:59:7d:9e:aa:c6:85:31:70:
                    fa:fc:03:f5:3c:2e:9c:70:cd:7d:65:06:6f:29:89:
                    ca:34:9c:b4:ca:fa:e2:c1:06:38:b1:d4:98:7a:be:
                    8f:ff:36:e3:95:ae:3b:1c:84:c1:cd:1f:81:97:1d:
                    a2:cb
                Exponent: 65537 (0x10001)
        X509v3 extensions:
            X509v3 Basic Constraints: 
                CA:FALSE
            Netscape Comment: 
                OpenSSL Generated Certificate
            X509v3 Subject Key Identifier: 
                14:EF:05:75:B9:3A:CE:98:21:80:66:96:17:00:CE:C0:9C:52:00:DC
            X509v3 Authority Key Identifier: 
                keyid:44:B3:FA:32:68:71:DF:AA:95:52:82:33:E9:C9:80:EB:88:A0:77:6E

            X509v3 Subject Alternative Name: 
                DNS:www.diogonunes2022.com, DNS:www.diogonunes2022A.com, DNS:www.diogonunes2022B.com
    Signature Algorithm: sha256WithRSAEncryption
         15:a1:14:56:76:a4:19:86:5d:90:ed:77:c2:11:9f:79:b4:29:
         67:ab:e7:a1:e5:ea:be:1d:7c:4c:78:72:f5:a9:6d:41:5f:ea:
         29:44:0f:19:f1:1b:33:f4:f3:fc:16:be:02:82:68:65:41:8e:
         33:d5:ba:be:1e:a7:61:e3:ee:14:a0:5e:c1:f3:21:e5:e5:23:
         04:58:5c:7b:fc:f8:35:72:47:62:65:66:d9:8c:fc:cc:6c:94:
         01:d2:2a:03:9b:95:a0:55:b7:0d:0b:1f:85:d5:e0:06:d2:cb:
         bb:9d:f7:a2:08:70:d9:59:33:73:a3:01:ca:a0:ee:0a:98:20:
         51:d3:46:ae:54:b4:82:57:93:7b:3a:b5:54:23:a2:59:9c:23:
         28:40:7e:2e:be:4d:eb:87:34:8b:c0:b1:8f:ac:b9:3a:ec:04:
         e7:6f:d7:e5:21:2a:b9:c7:33:fb:cf:a6:37:80:14:18:f7:29:
         78:ae:5b:5b:7a:b2:e6:98:b2:83:d9:0d:2f:7b:af:e1:35:89:
         09:4c:24:79:54:77:28:58:df:20:74:0e:33:11:7a:45:34:a2:
         b0:e4:97:34:72:a3:82:db:58:c2:ab:2a:91:b7:71:82:0b:8a:
         99:5f:65:26:e5:63:a1:ad:6f:14:7e:9b:fa:31:6d:56:09:c0:
         68:20:56:ba:d4:60:ce:a5:d2:f4:21:b2:ed:96:4f:67:df:16:
         40:14:7c:28:d5:f5:33:55:23:72:fb:97:1b:97:dc:22:8a:91:
         a4:f3:f7:3d:f5:ef:47:01:a9:37:b2:fa:a1:50:26:b4:78:10:
         88:26:37:b2:d5:b0:84:ba:43:61:2a:43:c8:ce:d2:5b:39:4d:
         b4:74:de:f1:17:bc:20:5a:a1:d4:d4:a3:77:9c:9d:fd:0e:df:
         7d:60:29:66:06:63:35:8c:20:6d:de:fd:8e:ac:26:b0:75:8d:
         2e:b5:ca:12:65:b5:77:43:c2:4c:77:a6:4e:36:56:7a:39:c3:
         ff:ba:5b:af:e8:7c:1a:98:c9:29:8d:ea:83:d6:23:11:22:af:
         e7:20:a7:ed:1f:20:47:63:a9:ba:11:37:75:41:c5:12:dc:f6:
         27:b6:61:e6:c8:0b:35:a5:cc:3e:59:cd:56:ed:2f:65:f3:ce:
         3b:ec:bf:21:52:7c:23:52:fe:a1:11:34:4a:fa:3f:cf:7e:e5:
         55:73:2b:54:e4:01:a5:b5:32:23:83:89:7a:0a:ed:5d:ce:3a:
         9f:be:7f:57:70:e7:79:ef:58:9c:19:f9:c6:10:af:0c:0c:18:
         38:ca:d3:3d:e1:84:8b:a8:dd:72:07:5f:05:54:1f:82:02:e9:
         5c:90:e6:f5:21:61:79:8c
-----BEGIN CERTIFICATE-----
MIIExzCCAq+gAwIBAgICEAIwDQYJKoZIhvcNAQELBQAwRzELMAkGA1UEBhMCUFQx
EzARBgNVBAgMClNvbWUtU3RhdGUxDTALBgNVBAoMBEZFVVAxFDASBgNVBAMMC0Rp
b2dvIE51bmVzMB4XDTIyMDEyMTEzMTgxNVoXDTMyMDExOTEzMTgxNVowMjELMAkG
A1UEBhMCUFQxDTALBgNVBAoMBEZFVVAxFDASBgNVBAMMC0Rpb2dvIE51bmVzMIIB
IjANBgkqhkiG9w0BAQEFAAOCAQ8AMIIBCgKCAQEAuTJCV9j0en4gt2WBOC/qfHaZ
j95OTUYKgo37QkBhi+k9/hMJdRt4Bv3MMOx1UHDn7mDd7grx9yM/YYAYkvxGgIJd
RjhNnFptBWsMtZKJY5BK5vb8PUu0Ck9ey5PnvGN60wyZwjHVupkEO9va4DLXrc11
f1jP79H8mQmO+mm/n+oKl+JjpVPWIVtvg+pw7uT/W7PNrFHqJ1hD+L2+cTe8vnkA
4Q9A/IXncWcoGJ/Lw9BzhExVA58CJcqVOUMNWIU6gI991BC/2DPSWX2eqsaFMXD6
/AP1PC6ccM19ZQZvKYnKNJy0yvriwQY4sdSYer6P/zbjla47HITBzR+Blx2iywID
AQABo4HRMIHOMAkGA1UdEwQCMAAwLAYJYIZIAYb4QgENBB8WHU9wZW5TU0wgR2Vu
ZXJhdGVkIENlcnRpZmljYXRlMB0GA1UdDgQWBBQU7wV1uTrOmCGAZpYXAM7AnFIA
3DAfBgNVHSMEGDAWgBREs/oyaHHfqpVSgjPpyYDriKB3bjBTBgNVHREETDBKghZ3
d3cuZGlvZ29udW5lczIwMjIuY29tghd3d3cuZGlvZ29udW5lczIwMjJBLmNvbYIX
d3d3LmRpb2dvbnVuZXMyMDIyQi5jb20wDQYJKoZIhvcNAQELBQADggIBABWhFFZ2
pBmGXZDtd8IRn3m0KWer56Hl6r4dfEx4cvWpbUFf6ilEDxnxGzP08/wWvgKCaGVB
jjPVur4ep2Hj7hSgXsHzIeXlIwRYXHv8+DVyR2JlZtmM/MxslAHSKgOblaBVtw0L
H4XV4AbSy7ud96IIcNlZM3OjAcqg7gqYIFHTRq5UtIJXk3s6tVQjolmcIyhAfi6+
TeuHNIvAsY+suTrsBOdv1+UhKrnHM/vPpjeAFBj3KXiuW1t6suaYsoPZDS97r+E1
iQlMJHlUdyhY3yB0DjMRekU0orDklzRyo4LbWMKrKpG3cYILiplfZSblY6GtbxR+
m/oxbVYJwGggVrrUYM6l0vQhsu2WT2ffFkAUfCjV9TNVI3L7lxuX3CKKkaTz9z31
70cBqTey+qFQJrR4EIgmN7LVsIS6Q2EqQ8jO0ls5TbR03vEXvCBaodTUo3ecnf0O
331gKWYGYzWMIG3e/Y6sJrB1jS61yhJltXdDwkx3pk42Vno5w/+6W6/ofBqYySmN
6oPWIxEir+cgp+0fIEdjqboRN3VBxRLc9ie2YebICzWlzD5ZzVbtL2XzzjvsvyFS
fCNS/qERNEr6P89+5VVzK1TkAaW1MiODiXoK7V3OOp++f1dw53nvWJwZ+cYQrwwM
GDjK0z3hhIuo3XIHXwVUH4IC6VyQ5vUhYXmM
-----END CERTIFICATE-----
