Certificate:
    Data:
        Version: 3 (0x2)
        Serial Number: 4099 (0x1003)
        Signature Algorithm: sha256WithRSAEncryption
        Issuer: C=PT, ST=Some-State, O=FEUP, CN=Diogo Nunes
        Validity
            Not Before: Jan 21 22:18:10 2022 GMT
            Not After : Jan 19 22:18:10 2032 GMT
        Subject: C=PT, O=FEUP Inc., CN=www.facebook.com
        Subject Public Key Info:
            Public Key Algorithm: rsaEncryption
                RSA Public-Key: (2048 bit)
                Modulus:
                    00:cc:c8:6c:b3:4a:6d:84:ea:67:19:cb:f9:fb:25:
                    84:87:c5:8e:09:95:fa:eb:b6:15:b6:5a:a1:d9:58:
                    6b:48:46:f8:c6:de:60:57:5e:57:4a:5a:05:93:35:
                    36:9d:c9:d6:d0:55:78:50:ad:8e:52:ec:0b:34:4b:
                    fe:07:8d:36:c1:c2:fe:bf:e0:5b:63:29:36:3a:16:
                    33:5d:73:37:92:33:7c:13:f3:d8:01:44:be:f3:17:
                    81:d8:4b:7a:56:97:68:16:bd:0a:b1:2e:c1:46:2c:
                    fa:cf:49:3b:0b:1c:3e:2e:08:72:d4:5c:0e:f2:70:
                    75:e2:d0:10:aa:c1:84:f2:46:08:08:ce:3b:53:ce:
                    66:90:88:03:31:db:f9:a4:0f:f8:c6:1d:45:c2:5b:
                    b3:89:bc:ce:6e:db:75:90:8a:72:ef:c7:a2:f5:8f:
                    98:aa:5e:f5:7f:8f:10:a2:a1:dc:83:8f:ca:f5:e7:
                    fc:e2:ee:83:99:2b:fd:9a:01:9e:69:12:57:0a:bf:
                    23:b8:01:e9:06:66:2c:25:4e:8a:ca:ec:f6:9c:22:
                    51:4c:3f:fc:0c:4f:e1:c8:dd:8e:f6:eb:bf:7e:2c:
                    f4:58:3f:f0:e0:85:b6:85:93:1f:05:2c:b1:0d:65:
                    3e:86:79:33:5a:2c:4c:67:8f:9c:a0:ec:0d:17:6c:
                    f5:c3
                Exponent: 65537 (0x10001)
        X509v3 extensions:
            X509v3 Basic Constraints: 
                CA:FALSE
            Netscape Comment: 
                OpenSSL Generated Certificate
            X509v3 Subject Key Identifier: 
                EC:C9:75:A7:3A:0B:0C:45:DC:34:B3:2F:F5:51:83:65:FD:9C:15:48
            X509v3 Authority Key Identifier: 
                keyid:44:B3:FA:32:68:71:DF:AA:95:52:82:33:E9:C9:80:EB:88:A0:77:6E

    Signature Algorithm: sha256WithRSAEncryption
         5d:d2:a5:43:eb:34:b7:5f:96:b1:3a:2b:f2:c7:51:4b:5c:0f:
         fd:19:2c:11:b1:9b:47:9d:06:82:38:b8:5e:6f:bd:15:a7:60:
         7c:89:ea:29:2f:20:8c:fc:d4:5f:b5:16:3e:c2:c3:da:70:be:
         68:10:58:c3:22:86:15:a3:da:3e:af:c7:4b:6e:38:80:39:3d:
         00:d7:ba:84:7e:ba:74:c2:51:f1:d1:bf:80:74:19:dd:9c:ba:
         ac:7e:93:4c:c8:39:23:e3:e5:b5:9f:db:c4:f1:57:2e:b8:ee:
         40:2b:3e:4c:78:96:61:84:56:d7:89:9a:68:5d:f9:b3:9e:22:
         d7:da:d9:27:2c:21:a2:78:83:22:06:c2:fe:61:6d:59:89:c9:
         34:49:21:d4:0f:b5:35:cb:b6:72:e8:35:71:3e:f1:8f:c7:fa:
         6f:e6:70:2f:a8:ff:ad:cd:36:38:d8:c1:89:3a:ec:30:f3:d8:
         a2:91:8e:c5:1c:b1:c8:b6:67:20:81:20:21:80:17:37:02:9d:
         e2:24:59:15:b0:f6:d9:6f:ef:be:5e:54:4b:28:04:5c:39:99:
         4f:87:1e:a1:f7:f0:75:0f:6d:32:45:24:4b:39:fd:22:42:94:
         0c:ef:da:f5:1c:0e:48:39:6d:05:24:49:7a:06:61:d2:71:6e:
         3e:9d:3d:db:42:c5:cc:b4:01:56:0e:d3:1e:36:b1:f9:20:75:
         a7:84:d0:7e:94:2a:7d:49:70:ee:29:6a:e9:8d:ed:e1:7d:a1:
         66:44:f7:14:65:06:dd:b6:42:7a:03:a9:0a:be:96:f0:00:bf:
         f8:59:86:ab:f8:96:01:a7:32:29:f7:d1:4d:76:1d:38:2a:a2:
         db:6e:bb:c8:4b:c6:48:c1:98:39:46:de:cd:95:3a:39:90:f0:
         b1:f7:62:9b:7b:f0:0e:9d:ed:66:44:8c:48:89:29:37:48:9e:
         27:d5:86:98:3c:34:fd:1c:c9:0d:b5:04:8a:fb:7d:cc:d6:f5:
         66:8a:ed:8d:2b:ff:c6:56:5a:fb:93:d6:40:d3:6e:49:d3:76:
         cb:5d:9b:fc:45:44:d1:fb:6e:64:cf:ed:7b:de:ca:27:75:6f:
         aa:8f:16:ad:a6:d0:3d:18:4e:e5:eb:64:aa:86:1e:e7:27:2f:
         d2:30:e7:83:05:a5:45:99:bb:5c:d6:21:34:9a:14:c9:57:9e:
         72:07:53:08:c0:b7:48:04:e7:df:d1:0f:0c:18:64:52:0e:56:
         32:74:aa:94:66:af:98:0e:a0:5e:c7:3a:1e:8e:e2:ed:a5:3f:
         90:19:8d:63:df:5b:09:28:bc:0e:65:ad:98:c5:3f:64:cf:19:
         e8:01:08:dd:b0:9f:9f:64
-----BEGIN CERTIFICATE-----
MIIEejCCAmKgAwIBAgICEAMwDQYJKoZIhvcNAQELBQAwRzELMAkGA1UEBhMCUFQx
EzARBgNVBAgMClNvbWUtU3RhdGUxDTALBgNVBAoMBEZFVVAxFDASBgNVBAMMC0Rp
b2dvIE51bmVzMB4XDTIyMDEyMTIyMTgxMFoXDTMyMDExOTIyMTgxMFowPDELMAkG
A1UEBhMCUFQxEjAQBgNVBAoMCUZFVVAgSW5jLjEZMBcGA1UEAwwQd3d3LmZhY2Vi
b29rLmNvbTCCASIwDQYJKoZIhvcNAQEBBQADggEPADCCAQoCggEBAMzIbLNKbYTq
ZxnL+fslhIfFjgmV+uu2FbZaodlYa0hG+MbeYFdeV0paBZM1Np3J1tBVeFCtjlLs
CzRL/geNNsHC/r/gW2MpNjoWM11zN5IzfBPz2AFEvvMXgdhLelaXaBa9CrEuwUYs
+s9JOwscPi4IctRcDvJwdeLQEKrBhPJGCAjOO1POZpCIAzHb+aQP+MYdRcJbs4m8
zm7bdZCKcu/HovWPmKpe9X+PEKKh3IOPyvXn/OLug5kr/ZoBnmkSVwq/I7gB6QZm
LCVOisrs9pwiUUw//AxP4cjdjvbrv34s9Fg/8OCFtoWTHwUssQ1lPoZ5M1osTGeP
nKDsDRds9cMCAwEAAaN7MHkwCQYDVR0TBAIwADAsBglghkgBhvhCAQ0EHxYdT3Bl
blNTTCBHZW5lcmF0ZWQgQ2VydGlmaWNhdGUwHQYDVR0OBBYEFOzJdac6CwxF3DSz
L/VRg2X9nBVIMB8GA1UdIwQYMBaAFESz+jJocd+qlVKCM+nJgOuIoHduMA0GCSqG
SIb3DQEBCwUAA4ICAQBd0qVD6zS3X5axOivyx1FLXA/9GSwRsZtHnQaCOLheb70V
p2B8ieopLyCM/NRftRY+wsPacL5oEFjDIoYVo9o+r8dLbjiAOT0A17qEfrp0wlHx
0b+AdBndnLqsfpNMyDkj4+W1n9vE8VcuuO5AKz5MeJZhhFbXiZpoXfmzniLX2tkn
LCGieIMiBsL+YW1Zick0SSHUD7U1y7Zy6DVxPvGPx/pv5nAvqP+tzTY42MGJOuww
89iikY7FHLHItmcggSAhgBc3Ap3iJFkVsPbZb+++XlRLKARcOZlPhx6h9/B1D20y
RSRLOf0iQpQM79r1HA5IOW0FJEl6BmHScW4+nT3bQsXMtAFWDtMeNrH5IHWnhNB+
lCp9SXDuKWrpje3hfaFmRPcUZQbdtkJ6A6kKvpbwAL/4WYar+JYBpzIp99FNdh04
KqLbbrvIS8ZIwZg5Rt7NlTo5kPCx92Kbe/AOne1mRIxIiSk3SJ4n1YaYPDT9HMkN
tQSK+33M1vVmiu2NK//GVlr7k9ZA025J03bLXZv8RUTR+25kz+173sondW+qjxat
ptA9GE7l62Sqhh7nJy/SMOeDBaVFmbtc1iE0mhTJV55yB1MIwLdIBOff0Q8MGGRS
DlYydKqUZq+YDqBexzoejuLtpT+QGY1j31sJKLwOZa2YxT9kzxnoAQjdsJ+fZA==
-----END CERTIFICATE-----
